target datalayout = "e-m:e-p270:32:32-p271:32:32-p272:64:64-i64:64-i128:128-f80:128-n8:16:32:64-S128"
target triple = "x86_64-pc-linux-gnu"

%struct.evhttp_connection = type { %struct.anon, ptr, %struct.event, ptr, i16, ptr, i16, ptr, i64, i64, i32, %struct.timeval, %struct.timeval, %struct.timeval, i32, i32, %struct.timeval, i32, ptr, %struct.evcon_requestq, ptr, ptr, ptr, ptr, %struct.event_callback, ptr, ptr, i32, ptr }
%struct.anon = type { ptr, ptr }
%struct.event = type { %struct.event_callback, %union.anon.1, i32, i16, i16, ptr, %union.anon.3, %struct.timeval }
%union.anon.1 = type { %struct.anon.2 }
%struct.anon.2 = type { ptr, ptr }
%union.anon.3 = type { %struct.anon.4 }
%struct.anon.4 = type { %struct.anon.5, %struct.timeval }
%struct.anon.5 = type { ptr, ptr }
%struct.timeval = type { i64, i64 }
%struct.evcon_requestq = type { ptr, ptr }
%struct.event_callback = type { %struct.anon.0, i16, i8, i8, %union.anon, ptr }
%struct.anon.0 = type { ptr, ptr }
%union.anon = type { ptr }
%struct.evhttp_request = type { %struct.anon.8, ptr, i32, ptr, ptr, ptr, i16, ptr, i32, i32, i64, i64, ptr, ptr, i8, i8, i32, ptr, ptr, i64, i8, ptr, ptr, ptr, ptr, ptr, ptr, ptr, ptr }
%struct.anon.8 = type { ptr, ptr }

@.str.2 = private unnamed_addr constant [11 x i8] c"%s: strdup\00", align 1
@__func__.evhttp_make_request = private unnamed_addr constant [20 x i8] c"evhttp_make_request\00", align 1

; Function Attrs: nounwind uwtable
define internal i32 @evhttp_connected(ptr noundef %0) #0 {
  %2 = alloca i32, align 4
  %3 = alloca ptr, align 8
  store ptr %0, ptr %3, align 8
  %4 = load ptr, ptr %3, align 8
  %5 = getelementptr inbounds nuw %struct.evhttp_connection, ptr %4, i32 0, i32 17
  %6 = load i32, ptr %5, align 8
  switch i32 %6, label %9 [
    i32 0, label %7
    i32 1, label %7
    i32 2, label %8
    i32 3, label %8
    i32 4, label %8
    i32 5, label %8
    i32 6, label %8
    i32 7, label %8
  ]

7:                                                ; preds = %1, %1
  store i32 0, ptr %2, align 4
  br label %10

8:                                                ; preds = %1, %1, %1, %1, %1, %1
  br label %9

9:                                                ; preds = %1, %8
  store i32 1, ptr %2, align 4
  br label %10

10:                                               ; preds = %9, %7
  %11 = load i32, ptr %2, align 4
  ret i32 %11
}

; Function Attrs: inlinehint nounwind uwtable
define internal void @evhttp_request_free_auto(ptr noundef %0) #7 {
  %2 = alloca ptr, align 8
  store ptr %0, ptr %2, align 8
  %3 = load ptr, ptr %2, align 8
  %4 = getelementptr inbounds nuw %struct.evhttp_request, ptr %3, i32 0, i32 2
  %5 = load i32, ptr %4, align 8
  %6 = and i32 %5, 4
  %7 = icmp ne i32 %6, 0
  br i1 %7, label %10, label %8

8:                                                ; preds = %1
  %9 = load ptr, ptr %2, align 8
  call void @evhttp_request_free(ptr noundef %9)
  br label %10

10:                                               ; preds = %8, %1
  ret void
}

; Function Attrs: nounwind uwtable
define i32 @evhttp_make_request(ptr noundef %0, ptr noundef %1, i32 noundef %2, ptr noundef %3) #0 {
  %5 = alloca i32, align 4
  %6 = alloca ptr, align 8
  %7 = alloca ptr, align 8
  %8 = alloca i32, align 4
  %9 = alloca ptr, align 8
  %10 = alloca i32, align 4
  store ptr %0, ptr %6, align 8
  store ptr %1, ptr %7, align 8
  store i32 %2, ptr %8, align 4
  store ptr %3, ptr %9, align 8
  %11 = load ptr, ptr %7, align 8
  %12 = getelementptr inbounds nuw %struct.evhttp_request, ptr %11, i32 0, i32 8
  store i32 0, ptr %12, align 8
  %13 = load i32, ptr %8, align 4
  %14 = load ptr, ptr %7, align 8
  %15 = getelementptr inbounds nuw %struct.evhttp_request, ptr %14, i32 0, i32 9
  store i32 %13, ptr %15, align 4
  %16 = load ptr, ptr %7, align 8
  %17 = getelementptr inbounds nuw %struct.evhttp_request, ptr %16, i32 0, i32 12
  %18 = load ptr, ptr %17, align 8
  %19 = icmp ne ptr %18, null
  br i1 %19, label %20, label %24

20:                                               ; preds = %4
  %21 = load ptr, ptr %7, align 8
  %22 = getelementptr inbounds nuw %struct.evhttp_request, ptr %21, i32 0, i32 12
  %23 = load ptr, ptr %22, align 8
  call void @event_mm_free_(ptr noundef %23)
  br label %24

24:                                               ; preds = %20, %4
  %25 = load ptr, ptr %9, align 8
  %26 = call ptr @event_mm_strdup_(ptr noundef %25)
  %27 = load ptr, ptr %7, align 8
  %28 = getelementptr inbounds nuw %struct.evhttp_request, ptr %27, i32 0, i32 12
  store ptr %26, ptr %28, align 8
  %29 = icmp eq ptr %26, null
  br i1 %29, label %30, label %32

30:                                               ; preds = %24
  call void (ptr, ...) @event_warn(ptr noundef @.str.2, ptr noundef @__func__.evhttp_make_request)
  %31 = load ptr, ptr %7, align 8
  call void @evhttp_request_free_auto(ptr noundef %31)
  store i32 -1, ptr %5, align 4
  br label %141

32:                                               ; preds = %24
  %33 = load ptr, ptr %7, align 8
  %34 = getelementptr inbounds nuw %struct.evhttp_request, ptr %33, i32 0, i32 14
  %35 = load i8, ptr %34, align 8
  %36 = icmp ne i8 %35, 0
  br i1 %36, label %47, label %37

37:                                               ; preds = %32
  %38 = load ptr, ptr %7, align 8
  %39 = getelementptr inbounds nuw %struct.evhttp_request, ptr %38, i32 0, i32 15
  %40 = load i8, ptr %39, align 1
  %41 = icmp ne i8 %40, 0
  br i1 %41, label %47, label %42

42:                                               ; preds = %37
  %43 = load ptr, ptr %7, align 8
  %44 = getelementptr inbounds nuw %struct.evhttp_request, ptr %43, i32 0, i32 14
  store i8 1, ptr %44, align 8
  %45 = load ptr, ptr %7, align 8
  %46 = getelementptr inbounds nuw %struct.evhttp_request, ptr %45, i32 0, i32 15
  store i8 1, ptr %46, align 1
  br label %47

47:                                               ; preds = %42, %37, %32
  br label %48

48:                                               ; preds = %47
  br label %49

49:                                               ; preds = %48
  %50 = load ptr, ptr %6, align 8
  %51 = load ptr, ptr %7, align 8
  %52 = getelementptr inbounds nuw %struct.evhttp_request, ptr %51, i32 0, i32 1
  store ptr %50, ptr %52, align 8
  br label %53

53:                                               ; preds = %49
  br label %54

54:                                               ; preds = %53
  br label %55

55:                                               ; preds = %54
  %56 = load ptr, ptr %7, align 8
  %57 = getelementptr inbounds nuw %struct.evhttp_request, ptr %56, i32 0, i32 0
  %58 = getelementptr inbounds nuw %struct.anon.8, ptr %57, i32 0, i32 0
  store ptr null, ptr %58, align 8
  %59 = load ptr, ptr %6, align 8
  %60 = getelementptr inbounds nuw %struct.evhttp_connection, ptr %59, i32 0, i32 19
  %61 = getelementptr inbounds nuw %struct.evcon_requestq, ptr %60, i32 0, i32 1
  %62 = load ptr, ptr %61, align 8
  %63 = load ptr, ptr %7, align 8
  %64 = getelementptr inbounds nuw %struct.evhttp_request, ptr %63, i32 0, i32 0
  %65 = getelementptr inbounds nuw %struct.anon.8, ptr %64, i32 0, i32 1
  store ptr %62, ptr %65, align 8
  %66 = load ptr, ptr %7, align 8
  %67 = load ptr, ptr %6, align 8
  %68 = getelementptr inbounds nuw %struct.evhttp_connection, ptr %67, i32 0, i32 19
  %69 = getelementptr inbounds nuw %struct.evcon_requestq, ptr %68, i32 0, i32 1
  %70 = load ptr, ptr %69, align 8
  store ptr %66, ptr %70, align 8
  %71 = load ptr, ptr %7, align 8
  %72 = getelementptr inbounds nuw %struct.evhttp_request, ptr %71, i32 0, i32 0
  %73 = getelementptr inbounds nuw %struct.anon.8, ptr %72, i32 0, i32 0
  %74 = load ptr, ptr %6, align 8
  %75 = getelementptr inbounds nuw %struct.evhttp_connection, ptr %74, i32 0, i32 19
  %76 = getelementptr inbounds nuw %struct.evcon_requestq, ptr %75, i32 0, i32 1
  store ptr %73, ptr %76, align 8
  br label %77

77:                                               ; preds = %55
  %78 = load ptr, ptr %6, align 8
  %79 = getelementptr inbounds nuw %struct.evhttp_connection, ptr %78, i32 0, i32 14
  %80 = load i32, ptr %79, align 8
  %81 = icmp ne i32 %80, 0
  br i1 %81, label %82, label %83

82:                                               ; preds = %77
  store i32 0, ptr %5, align 4
  br label %141

83:                                               ; preds = %77
  %84 = load ptr, ptr %6, align 8
  %85 = call i32 @evhttp_connected(ptr noundef %84)
  %86 = icmp ne i32 %85, 0
  br i1 %86, label %131, label %87

87:                                               ; preds = %83
  call void @llvm.lifetime.start.p0(i64 4, ptr %10) #11
  %88 = load ptr, ptr %6, align 8
  %89 = call i32 @evhttp_connection_connect_(ptr noundef %88)
  store i32 %89, ptr %10, align 4
  %90 = load i32, ptr %10, align 4
  %91 = icmp ne i32 %90, 0
  br i1 %91, label %92, label %129

92:                                               ; preds = %87
  br label %93

93:                                               ; preds = %92
  %94 = load ptr, ptr %7, align 8
  %95 = getelementptr inbounds nuw %struct.evhttp_request, ptr %94, i32 0, i32 0
  %96 = getelementptr inbounds nuw %struct.anon.8, ptr %95, i32 0, i32 0
  %97 = load ptr, ptr %96, align 8
  %98 = icmp ne ptr %97, null
  br i1 %98, label %99, label %110

99:                                               ; preds = %93
  %100 = load ptr, ptr %7, align 8
  %101 = getelementptr inbounds nuw %struct.evhttp_request, ptr %100, i32 0, i32 0
  %102 = getelementptr inbounds nuw %struct.anon.8, ptr %101, i32 0, i32 1
  %103 = load ptr, ptr %102, align 8
  %104 = load ptr, ptr %7, align 8
  %105 = getelementptr inbounds nuw %struct.evhttp_request, ptr %104, i32 0, i32 0
  %106 = getelementptr inbounds nuw %struct.anon.8, ptr %105, i32 0, i32 0
  %107 = load ptr, ptr %106, align 8
  %108 = getelementptr inbounds nuw %struct.evhttp_request, ptr %107, i32 0, i32 0
  %109 = getelementptr inbounds nuw %struct.anon.8, ptr %108, i32 0, i32 1
  store ptr %103, ptr %109, align 8
  br label %118

110:                                              ; preds = %93
  %111 = load ptr, ptr %7, align 8
  %112 = getelementptr inbounds nuw %struct.evhttp_request, ptr %111, i32 0, i32 0
  %113 = getelementptr inbounds nuw %struct.anon.8, ptr %112, i32 0, i32 1
  %114 = load ptr, ptr %113, align 8
  %115 = load ptr, ptr %6, align 8
  %116 = getelementptr inbounds nuw %struct.evhttp_connection, ptr %115, i32 0, i32 19
  %117 = getelementptr inbounds nuw %struct.evcon_requestq, ptr %116, i32 0, i32 1
  store ptr %114, ptr %117, align 8
  br label %118

118:                                              ; preds = %110, %99
  %119 = load ptr, ptr %7, align 8
  %120 = getelementptr inbounds nuw %struct.evhttp_request, ptr %119, i32 0, i32 0
  %121 = getelementptr inbounds nuw %struct.anon.8, ptr %120, i32 0, i32 0
  %122 = load ptr, ptr %121, align 8
  %123 = load ptr, ptr %7, align 8
  %124 = getelementptr inbounds nuw %struct.evhttp_request, ptr %123, i32 0, i32 0
  %125 = getelementptr inbounds nuw %struct.anon.8, ptr %124, i32 0, i32 1
  %126 = load ptr, ptr %125, align 8
  store ptr %122, ptr %126, align 8
  br label %127

127:                                              ; preds = %118
  br label %128

128:                                              ; preds = %127
  br label %129

129:                                              ; preds = %128, %87
  %130 = load i32, ptr %10, align 4
  store i32 %130, ptr %5, align 4
  call void @llvm.lifetime.end.p0(i64 4, ptr %10) #11
  br label %141

131:                                              ; preds = %83
  %132 = load ptr, ptr %6, align 8
  %133 = getelementptr inbounds nuw %struct.evhttp_connection, ptr %132, i32 0, i32 19
  %134 = getelementptr inbounds nuw %struct.evcon_requestq, ptr %133, i32 0, i32 0
  %135 = load ptr, ptr %134, align 8
  %136 = load ptr, ptr %7, align 8
  %137 = icmp eq ptr %135, %136
  br i1 %137, label %138, label %140

138:                                              ; preds = %131
  %139 = load ptr, ptr %6, align 8
  call void @evhttp_request_dispatch(ptr noundef %139)
  br label %140

140:                                              ; preds = %138, %131
  store i32 0, ptr %5, align 4
  br label %141

141:                                              ; preds = %140, %129, %82, %30
  %142 = load i32, ptr %5, align 4
  ret i32 %142
}