; Function Attrs: nounwind uwtable
define range(i32 -1, 1) i32 @evhttp_make_request(ptr noundef %0, ptr noundef initializes((72, 80)) %1, i32 noundef %2, ptr noundef %3) local_unnamed_addr #0 {
  %5 = getelementptr inbounds nuw i8, ptr %1, i64 72
  store i32 0, ptr %5, align 8
  %6 = getelementptr inbounds nuw i8, ptr %1, i64 76
  store i32 %2, ptr %6, align 4
  %7 = getelementptr inbounds nuw i8, ptr %1, i64 96
  %8 = load ptr, ptr %7, align 8
  %.not = icmp eq ptr %8, null
  br i1 %.not, label %10, label %9

9:                                                ; preds = %4
  tail call void @event_mm_free_(ptr noundef nonnull %8) #18
  br label %10

10:                                               ; preds = %9, %4
  %11 = tail call ptr @event_mm_strdup_(ptr noundef %3) #18
  store ptr %11, ptr %7, align 8
  %12 = icmp eq ptr %11, null
  br i1 %12, label %13, label %18

13:                                               ; preds = %10
  tail call void (ptr, ...) @event_warn(ptr noundef nonnull @.str.2, ptr noundef nonnull @__func__.evhttp_make_request) #18
  %14 = getelementptr inbounds nuw i8, ptr %1, i64 24
  %15 = load i32, ptr %14, align 8
  %16 = and i32 %15, 4
  %.not.i = icmp eq i32 %16, 0
  br i1 %.not.i, label %17, label %evhttp_request_free_auto.exit

17:                                               ; preds = %13
  tail call void @evhttp_request_free(ptr noundef nonnull %1)
  br label %evhttp_request_free_auto.exit

18:                                               ; preds = %10
  %19 = getelementptr inbounds nuw i8, ptr %1, i64 112
  %20 = load i8, ptr %19, align 8
  %.not38 = icmp eq i8 %20, 0
  br i1 %.not38, label %21, label %25

21:                                               ; preds = %18
  %22 = getelementptr inbounds nuw i8, ptr %1, i64 113
  %23 = load i8, ptr %22, align 1
  %.not39 = icmp eq i8 %23, 0
  br i1 %.not39, label %24, label %25

24:                                               ; preds = %21
  store i8 1, ptr %19, align 8
  store i8 1, ptr %22, align 1
  br label %25

25:                                               ; preds = %24, %21, %18
  %26 = getelementptr inbounds nuw i8, ptr %1, i64 16
  store ptr %0, ptr %26, align 8
  store ptr null, ptr %1, align 8
  %27 = getelementptr inbounds nuw i8, ptr %0, i64 296
  %28 = getelementptr inbounds nuw i8, ptr %0, i64 304
  %29 = load ptr, ptr %28, align 8
  %30 = getelementptr inbounds nuw i8, ptr %1, i64 8
  store ptr %29, ptr %30, align 8
  store ptr %1, ptr %29, align 8
  store ptr %1, ptr %28, align 8
  %31 = getelementptr inbounds nuw i8, ptr %0, i64 256
  %32 = load i32, ptr %31, align 8
  %.not40 = icmp eq i32 %32, 0
  br i1 %.not40, label %33, label %evhttp_request_free_auto.exit

33:                                               ; preds = %25
  %34 = getelementptr i8, ptr %0, i64 280
  %.val = load i32, ptr %34, align 8
  %switch.i = icmp ult i32 %.val, 2
  br i1 %switch.i, label %35, label %45

35:                                               ; preds = %33
  %36 = tail call i32 @evhttp_connection_connect_(ptr noundef nonnull %0)
  %.not42 = icmp eq i32 %36, 0
  br i1 %.not42, label %evhttp_request_free_auto.exit, label %37

37:                                               ; preds = %35
  %38 = load ptr, ptr %1, align 8
  %.not43 = icmp eq ptr %38, null
  %39 = load ptr, ptr %30, align 8
  br i1 %.not43, label %42, label %40

40:                                               ; preds = %37
  %41 = getelementptr inbounds nuw i8, ptr %38, i64 8
  store ptr %39, ptr %41, align 8
  br label %43

42:                                               ; preds = %37
  store ptr %39, ptr %28, align 8
  br label %43

43:                                               ; preds = %42, %40
  %44 = load ptr, ptr %1, align 8
  store ptr %44, ptr %39, align 8
  br label %evhttp_request_free_auto.exit

45:                                               ; preds = %33
  %46 = load ptr, ptr %27, align 8
  %47 = icmp eq ptr %46, %1
  br i1 %47, label %48, label %evhttp_request_free_auto.exit

48:                                               ; preds = %45
  tail call fastcc void @evhttp_request_dispatch(ptr noundef nonnull %0)
  br label %evhttp_request_free_auto.exit

evhttp_request_free_auto.exit:                    ; preds = %17, %13, %45, %48, %35, %43, %25
  %.0 = phi i32 [ 0, %25 ], [ -1, %43 ], [ 0, %35 ], [ 0, %48 ], [ 0, %45 ], [ -1, %13 ], [ -1, %17 ]
  ret i32 %.0
}